(dp0
S'METTS MARK'
p1
(dp2
S'to_messages'
p3
I807
sS'deferral_payments'
p4
S'NaN'
p5
sS'expenses'
p6
I94299
sS'poi'
p7
I00
sS'deferred_income'
p8
g5
sS'email_address'
p9
S'mark.metts@enron.com'
p10
sS'long_term_incentive'
p11
g5
sS'poi_total_fraction'
p12
F0.04665071770334928
sS'restricted_stock_deferred'
p13
g5
sS'total_net_worth'
p14
I1646889
sS'shared_receipt_with_poi'
p15
I702
sS'loan_advances'
p16
g5
sS'from_messages'
p17
I29
sS'other'
p18
I1740
sS'director_fees'
p19
g5
sS'bonus'
p20
I600000
sS'total_stock_value'
p21
I585062
sS'from_poi_to_this_person'
p22
I38
sS'from_this_person_to_poi'
p23
I1
sS'restricted_stock'
p24
I585062
sS'salary'
p25
I365788
sS'total_payments'
p26
I1061827
sS'exercised_stock_options'
p27
g5
ssS'BAXTER JOHN C'
p28
(dp29
g3
g5
sg4
I1295738
sg6
I11200
sg7
I00
sg8
I-1386055
sg9
g5
sg11
I1586055
sg12
I0
sg13
g5
sg14
I16257601
sg15
g5
sg16
g5
sg17
g5
sg18
I2660303
sg19
g5
sg20
I1200000
sg21
I10623258
sg22
g5
sg23
g5
sg24
I3942714
sg25
I267102
sg26
I5634343
sg27
I6680544
ssS'ELLIOTT STEVEN'
p30
(dp31
g3
g5
sg4
g5
sg6
I78552
sg7
I00
sg8
I-400729
sg9
S'steven.elliott@enron.com'
p32
sg11
g5
sg12
I0
sg13
g5
sg14
I6890460
sg15
g5
sg16
g5
sg17
g5
sg18
I12961
sg19
g5
sg20
I350000
sg21
I6678735
sg22
g5
sg23
g5
sg24
I1788391
sg25
I170941
sg26
I211725
sg27
I4890344
ssS'CORDES WILLIAM R'
p33
(dp34
g3
I764
sg4
g5
sg6
g5
sg7
I00
sg8
g5
sg9
S'bill.cordes@enron.com'
p35
sg11
g5
sg12
F0.01288659793814433
sg13
g5
sg14
S'NaN'
p36
sg15
I58
sg16
g5
sg17
I12
sg18
g5
sg19
g5
sg20
g5
sg21
I1038185
sg22
I10
sg23
I0
sg24
I386335
sg25
g5
sg26
g5
sg27
I651850
ssS'HANNON KEVIN P'
p37
(dp38
g3
I1045
sg4
g5
sg6
I34039
sg7
I01
sg8
I-3117011
sg9
S'kevin.hannon@enron.com'
p39
sg11
I1617011
sg12
F0.04921077065923862
sg13
g5
sg14
I6679747
sg15
I1035
sg16
g5
sg17
I32
sg18
I11350
sg19
g5
sg20
I1500000
sg21
I6391065
sg22
I32
sg23
I21
sg24
I853064
sg25
I243293
sg26
I288682
sg27
I5538001
ssS'MORDAUNT KRISTINA M'
p40
(dp41
g3
g5
sg4
g5
sg6
I35018
sg7
I00
sg8
g5
sg9
S'kristina.mordaunt@enron.com'
p42
sg11
g5
sg12
I0
sg13
g5
sg14
I837032
sg15
g5
sg16
g5
sg17
g5
sg18
I1411
sg19
g5
sg20
I325000
sg21
I208510
sg22
g5
sg23
g5
sg24
I208510
sg25
I267093
sg26
I628522
sg27
g5
ssS'MEYER ROCKFORD G'
p43
(dp44
g3
I232
sg4
I1848227
sg6
g5
sg7
I00
sg8
g5
sg9
S'rockford.meyer@enron.com'
p45
sg11
g5
sg12
F0.0
sg13
g5
sg14
I2804100
sg15
I22
sg16
g5
sg17
I28
sg18
g5
sg19
g5
sg20
g5
sg21
I955873
sg22
I0
sg23
I0
sg24
I462384
sg25
g5
sg26
I1848227
sg27
I493489
ssS'MCMAHON JEFFREY'
p46
(dp47
g3
I2355
sg4
g5
sg6
I137108
sg7
I00
sg8
g5
sg9
S'jeffrey.mcmahon@enron.com'
p48
sg11
I694862
sg12
F0.03495630461922597
sg13
g5
sg14
I5762626
sg15
I2228
sg16
g5
sg17
I48
sg18
I297353
sg19
g5
sg20
I2600000
sg21
I1662855
sg22
I58
sg23
I26
sg24
I558801
sg25
I370448
sg26
I4099771
sg27
I1104054
ssS'HORTON STANLEY C'
p49
(dp50
g3
I2350
sg4
I3131860
sg6
g5
sg7
I00
sg8
g5
sg9
S'stanley.horton@enron.com'
p51
sg11
g5
sg12
F0.017236342389716622
sg13
g5
sg14
I10388508
sg15
I1074
sg16
g5
sg17
I1073
sg18
g5
sg19
g5
sg20
g5
sg21
I7256648
sg22
I44
sg23
I15
sg24
I2046079
sg25
g5
sg26
I3131860
sg27
I5210569
ssS'PIPER GREGORY F'
p52
(dp53
g3
I1238
sg4
I1130036
sg6
I43057
sg7
I00
sg8
I-33333
sg9
S'greg.piper@enron.com'
p54
sg11
g5
sg12
F0.07465753424657534
sg13
I-409554
sg14
I2617919
sg15
I742
sg16
g5
sg17
I222
sg18
I778
sg19
g5
sg20
I400000
sg21
I880290
sg22
I61
sg23
I48
sg24
I409554
sg25
I197091
sg26
I1737629
sg27
I880290
ssS'HUMPHREY GENE E'
p55
(dp56
g3
I128
sg4
I2964506
sg6
I4994
sg7
I00
sg8
g5
sg9
S'gene.humphrey@enron.com'
p57
sg11
g5
sg12
F0.18620689655172415
sg13
g5
sg14
I5382992
sg15
I119
sg16
g5
sg17
I17
sg18
g5
sg19
g5
sg20
g5
sg21
I2282768
sg22
I10
sg23
I17
sg24
g5
sg25
I130724
sg26
I3100224
sg27
I2282768
ssS'UMANOFF ADAM S'
p58
(dp59
g3
I111
sg4
g5
sg6
I53122
sg7
I00
sg8
g5
sg9
S'adam.umanoff@enron.com'
p60
sg11
g5
sg12
F0.09302325581395349
sg13
g5
sg14
g36
sg15
I41
sg16
g5
sg17
I18
sg18
g5
sg19
g5
sg20
I788750
sg21
g5
sg22
I12
sg23
I0
sg24
g5
sg25
I288589
sg26
I1130461
sg27
g5
ssS'BLACHMAN JEREMY M'
p61
(dp62
g3
I2475
sg4
g5
sg6
I84208
sg7
I00
sg8
g5
sg9
S'jeremy.blachman@enron.com'
p63
sg11
I831809
sg12
F0.010847730012053034
sg13
g5
sg14
I2969189
sg15
I2326
sg16
g5
sg17
I14
sg18
I272
sg19
g5
sg20
I850000
sg21
I954354
sg22
I25
sg23
I2
sg24
I189041
sg25
I248546
sg26
I2014835
sg27
I765313
ssS'SUNDE MARTIN'
p64
(dp65
g3
I2647
sg4
g5
sg6
g5
sg7
I00
sg8
g5
sg9
S'marty.sunde@enron.com'
p66
sg11
I476451
sg12
F0.0186219739292365
sg13
g5
sg14
I2243979
sg15
I2565
sg16
g5
sg17
I38
sg18
I111122
sg19
g5
sg20
I700000
sg21
I698920
sg22
I37
sg23
I13
sg24
I698920
sg25
I257486
sg26
I1545059
sg27
g5
ssS'GIBBS DANA R'
p67
(dp68
g3
I169
sg4
I504610
sg6
g5
sg7
I00
sg8
g5
sg9
S'dana.gibbs@enron.com'
p69
sg11
I461912
sg12
F0.0
sg13
g5
sg14
I3184797
sg15
I23
sg16
g5
sg17
I12
sg18
g5
sg19
g5
sg20
g5
sg21
I2218275
sg22
I0
sg23
I0
sg24
g5
sg25
g5
sg26
I966522
sg27
I2218275
ssS'LOWRY CHARLES P'
p70
(dp71
g3
g5
sg4
g5
sg6
g5
sg7
I00
sg8
g5
sg9
g5
sg11
g5
sg12
I0
sg13
I-153686
sg14
g36
sg15
g5
sg16
g5
sg17
g5
sg18
g5
sg19
g5
sg20
g5
sg21
I372205
sg22
g5
sg23
g5
sg24
I153686
sg25
g5
sg26
g5
sg27
I372205
ssS'COLWELL WESLEY'
p72
(dp73
g3
I1758
sg4
I27610
sg6
I16514
sg7
I01
sg8
I-144062
sg9
S'wes.colwell@enron.com'
p74
sg11
g5
sg12
F0.13959955506117908
sg13
g5
sg14
I2188586
sg15
I1132
sg16
g5
sg17
I40
sg18
I101740
sg19
g5
sg20
I1200000
sg21
I698242
sg22
I240
sg23
I11
sg24
I698242
sg25
I288542
sg26
I1490344
sg27
g5
ssS'MULLER MARK S'
p75
(dp76
g3
I136
sg4
I842924
sg6
g5
sg7
I00
sg8
I-719000
sg9
S's..muller@enron.com'
p77
sg11
I1725545
sg12
F0.07894736842105263
sg13
g5
sg14
I4618918
sg15
I114
sg16
g5
sg17
I16
sg18
I947
sg19
g5
sg20
I1100000
sg21
I1416848
sg22
I12
sg23
I0
sg24
I360528
sg25
I251654
sg26
I3202070
sg27
I1056320
ssS'JACKSON CHARLENE R'
p78
(dp79
g3
I258
sg4
g5
sg6
I10181
sg7
I00
sg8
g5
sg9
S'charlene.jackson@enron.com'
p80
sg11
g5
sg12
F0.14012738853503184
sg13
g5
sg14
I1276909
sg15
I117
sg16
g5
sg17
I56
sg18
I2435
sg19
g5
sg20
I250000
sg21
I725735
sg22
I25
sg23
I19
sg24
I540672
sg25
I288558
sg26
I551174
sg27
I185063
ssS'WESTFAHL RICHARD K'
p81
(dp82
g3
g5
sg4
g5
sg6
I51870
sg7
I00
sg8
I-10800
sg9
S'dick.westfahl@enron.com'
p83
sg11
I256191
sg12
I0
sg13
g5
sg14
I1147065
sg15
g5
sg16
g5
sg17
g5
sg18
I401130
sg19
g5
sg20
g5
sg21
I384930
sg22
g5
sg23
g5
sg24
I384930
sg25
I63744
sg26
I762135
sg27
g5
ssS'WALTERS GARETH W'
p84
(dp85
g3
g5
sg4
I53625
sg6
I33785
sg7
I00
sg8
g5
sg9
g5
sg11
g5
sg12
I0
sg13
g5
sg14
I1117739
sg15
g5
sg16
g5
sg17
g5
sg18
g5
sg19
g5
sg20
g5
sg21
I1030329
sg22
g5
sg23
g5
sg24
g5
sg25
g5
sg26
I87410
sg27
I1030329
ssS'WALLS JR ROBERT H'
p86
(dp87
g3
I671
sg4
g5
sg6
I50936
sg7
I00
sg8
g5
sg9
S'rob.walls@enron.com'
p88
sg11
I540751
sg12
F0.0208078335373317
sg13
g5
sg14
I7697777
sg15
I215
sg16
g5
sg17
I146
sg18
I2
sg19
g5
sg20
I850000
sg21
I5898997
sg22
I17
sg23
I0
sg24
I1552453
sg25
I357091
sg26
I1798780
sg27
I4346544
ssS'KITCHEN LOUISE'
p89
(dp90
g3
I8305
sg4
g5
sg6
I5774
sg7
I00
sg8
g5
sg9
S'louise.kitchen@enron.com'
p91
sg11
g5
sg12
F0.044353633011063494
sg13
g5
sg14
I4018284
sg15
I3669
sg16
g5
sg17
I1728
sg18
I93925
sg19
g5
sg20
I3100000
sg21
I547143
sg22
I251
sg23
I194
sg24
I466101
sg25
I271442
sg26
I3471141
sg27
I81042
ssS'CHAN RONNIE'
p92
(dp93
g3
g5
sg4
g5
sg6
g5
sg7
I00
sg8
I-98784
sg9
g5
sg11
g5
sg12
I0
sg13
I-32460
sg14
g36
sg15
g5
sg16
g5
sg17
g5
sg18
g5
sg19
I98784
sg20
g5
sg21
g5
sg22
g5
sg23
g5
sg24
I32460
sg25
g5
sg26
g5
sg27
g5
ssS'BELFER ROBERT'
p94
(dp95
g3
g5
sg4
I-102500
sg6
g5
sg7
I00
sg8
g5
sg9
g5
sg11
g5
sg12
I0
sg13
I44093
sg14
I58407
sg15
g5
sg16
g5
sg17
g5
sg18
g5
sg19
I3285
sg20
g5
sg21
I-44093
sg22
g5
sg23
g5
sg24
g5
sg25
g5
sg26
I102500
sg27
I3285
ssS'SHANKMAN JEFFREY A'
p96
(dp97
g3
I3221
sg4
g5
sg6
I178979
sg7
I00
sg8
g5
sg9
S'jeffrey.shankman@enron.com'
p98
sg11
I554422
sg12
F0.029989833954591663
sg13
g5
sg14
I5110737
sg15
I1730
sg16
g5
sg17
I2681
sg18
I1191
sg19
g5
sg20
I2000000
sg21
I2072035
sg22
I94
sg23
I83
sg24
I630137
sg25
I304110
sg26
I3038702
sg27
I1441898
ssS'WODRASKA JOHN'
p99
(dp100
g3
g5
sg4
g5
sg6
g5
sg7
I00
sg8
g5
sg9
S'john.wodraska@enron.com'
p101
sg11
g5
sg12
I0
sg13
g5
sg14
g36
sg15
g5
sg16
g5
sg17
g5
sg18
I189583
sg19
g5
sg20
g5
sg21
g5
sg22
g5
sg23
g5
sg24
g5
sg25
g5
sg26
I189583
sg27
g5
ssS'BERGSIEKER RICHARD P'
p102
(dp103
g3
I383
sg4
g5
sg6
I59175
sg7
I00
sg8
I-485813
sg9
S'rick.bergsieker@enron.com'
p104
sg11
I180250
sg12
F0.00904977375565611
sg13
g5
sg14
I1278099
sg15
I233
sg16
g5
sg17
I59
sg18
I427316
sg19
g5
sg20
I250000
sg21
I659249
sg22
I4
sg23
I0
sg24
I659249
sg25
I187922
sg26
I618850
sg27
g5
ssS'URQUHART JOHN A'
p105
(dp106
g3
g5
sg4
g5
sg6
I228656
sg7
I00
sg8
I-36666
sg9
g5
sg11
g5
sg12
I0
sg13
g5
sg14
g36
sg15
g5
sg16
g5
sg17
g5
sg18
g5
sg19
I36666
sg20
g5
sg21
g5
sg22
g5
sg23
g5
sg24
g5
sg25
g5
sg26
I228656
sg27
g5
ssS'BIBI PHILIPPE A'
p107
(dp108
g3
I1607
sg4
g5
sg6
I38559
sg7
I00
sg8
g5
sg9
S'philippe.bibi@enron.com'
p109
sg11
I369721
sg12
F0.018822100789313904
sg13
g5
sg14
I3891409
sg15
I1336
sg16
g5
sg17
I40
sg18
I425688
sg19
g5
sg20
I1000000
sg21
I1843816
sg22
I23
sg23
I8
sg24
I378082
sg25
I213625
sg26
I2047593
sg27
I1465734
ssS'RIEKER PAULA H'
p110
(dp111
g3
I1328
sg4
I214678
sg6
I33271
sg7
I01
sg8
I-100000
sg9
S'paula.rieker@enron.com'
p112
sg11
g5
sg12
F0.058865248226950356
sg13
g5
sg14
I3017987
sg15
I1258
sg16
g5
sg17
I82
sg18
I1950
sg19
g5
sg20
I700000
sg21
I1918887
sg22
I35
sg23
I48
sg24
I283649
sg25
I249201
sg26
I1099100
sg27
I1635238
ssS'WHALEY DAVID A'
p113
(dp114
g3
g5
sg4
g5
sg6
g5
sg7
I00
sg8
g5
sg9
g5
sg11
g5
sg12
I0
sg13
g5
sg14
g36
sg15
g5
sg16
g5
sg17
g5
sg18
g5
sg19
g5
sg20
g5
sg21
I98718
sg22
g5
sg23
g5
sg24
g5
sg25
g5
sg26
g5
sg27
I98718
ssS'BECK SALLY W'
p115
(dp116
g3
I7315
sg4
g5
sg6
I37172
sg7
I00
sg8
g5
sg9
S'sally.beck@enron.com'
p117
sg11
g5
sg12
F0.0454623434551381
sg13
g5
sg14
I1095095
sg15
I2639
sg16
g5
sg17
I4343
sg18
I566
sg19
g5
sg20
I700000
sg21
I126027
sg22
I144
sg23
I386
sg24
I126027
sg25
I231330
sg26
I969068
sg27
g5
ssS'HAUG DAVID L'
p118
(dp119
g3
I573
sg4
g5
sg6
I475
sg7
I00
sg8
g5
sg9
S'david.haug@enron.com'
p120
sg11
g5
sg12
F0.018581081081081082
sg13
g5
sg14
I2217774
sg15
I471
sg16
g5
sg17
I19
sg18
g5
sg19
g5
sg20
g5
sg21
I2217299
sg22
I4
sg23
I7
sg24
I2217299
sg25
g5
sg26
I475
sg27
g5
ssS'ECHOLS JOHN B'
p121
(dp122
g3
g5
sg4
g5
sg6
I21530
sg7
I00
sg8
g5
sg9
S'john.echols@enron.com'
p123
sg11
I2234774
sg12
I0
sg13
g5
sg14
I3701265
sg15
g5
sg16
g5
sg17
g5
sg18
I53775
sg19
g5
sg20
I200000
sg21
I1008941
sg22
g5
sg23
g5
sg24
I407503
sg25
I182245
sg26
I2692324
sg27
I601438
ssS'MENDELSOHN JOHN'
p124
(dp125
g3
g5
sg4
g5
sg6
I148
sg7
I00
sg8
I-103750
sg9
g5
sg11
g5
sg12
I0
sg13
g5
sg14
g36
sg15
g5
sg16
g5
sg17
g5
sg18
g5
sg19
I103750
sg20
g5
sg21
g5
sg22
g5
sg23
g5
sg24
g5
sg25
g5
sg26
I148
sg27
g5
ssS'HICKERSON GARY J'
p126
(dp127
g3
I1320
sg4
g5
sg6
I98849
sg7
I00
sg8
g5
sg9
S'gary.hickerson@enron.com'
p128
sg11
I69223
sg12
F0.030438010393466965
sg13
g5
sg14
I2522892
sg15
I900
sg16
g5
sg17
I27
sg18
I1936
sg19
g5
sg20
I1700000
sg21
I441096
sg22
I40
sg23
I1
sg24
I441096
sg25
I211788
sg26
I2081796
sg27
g5
ssS'CLINE KENNETH W'
p129
(dp130
g3
g5
sg4
g5
sg6
g5
sg7
I00
sg8
g5
sg9
g5
sg11
g5
sg12
I0
sg13
I-472568
sg14
g36
sg15
g5
sg16
g5
sg17
g5
sg18
g5
sg19
g5
sg20
g5
sg21
I189518
sg22
g5
sg23
g5
sg24
I662086
sg25
g5
sg26
g5
sg27
g5
ssS'LEWIS RICHARD'
p131
(dp132
g3
I952
sg4
g5
sg6
g5
sg7
I00
sg8
g5
sg9
S'richard.lewis@enron.com'
p133
sg11
g5
sg12
F0.010224948875255624
sg13
g5
sg14
g36
sg15
I739
sg16
g5
sg17
I26
sg18
g5
sg19
g5
sg20
g5
sg21
I850477
sg22
I10
sg23
I0
sg24
g5
sg25
g5
sg26
g5
sg27
I850477
ssS'HAYES ROBERT E'
p134
(dp135
g3
I504
sg4
I7961
sg6
g5
sg7
I00
sg8
g5
sg9
S'robert.hayes@enron.com'
p136
sg11
g5
sg12
F0.031007751937984496
sg13
g5
sg14
I159379
sg15
I50
sg16
g5
sg17
I12
sg18
g5
sg19
g5
sg20
g5
sg21
I151418
sg22
I16
sg23
I0
sg24
I151418
sg25
g5
sg26
I7961
sg27
g5
ssS'MCCARTY DANNY J'
p137
(dp138
g3
I1433
sg4
g5
sg6
g5
sg7
I00
sg8
g5
sg9
S'danny.mccarty@enron.com'
p139
sg11
g5
sg12
F0.016383495145631068
sg13
g5
sg14
g36
sg15
I508
sg16
g5
sg17
I215
sg18
g5
sg19
g5
sg20
g5
sg21
I758931
sg22
I25
sg23
I2
sg24
I94556
sg25
g5
sg26
g5
sg27
I664375
ssS'KOPPER MICHAEL J'
p140
(dp141
g3
g5
sg4
g5
sg6
I118134
sg7
I01
sg8
g5
sg9
S'michael.kopper@enron.com'
p142
sg11
I602671
sg12
I0
sg13
g5
sg14
I3637644
sg15
g5
sg16
g5
sg17
g5
sg18
I907502
sg19
g5
sg20
I800000
sg21
I985032
sg22
g5
sg23
g5
sg24
I985032
sg25
I224305
sg26
I2652612
sg27
g5
ssS'LEFF DANIEL P'
p143
(dp144
g3
I2822
sg4
g5
sg6
g5
sg7
I00
sg8
g5
sg9
S'dan.leff@enron.com'
p145
sg11
I1387399
sg12
F0.028076256499133447
sg13
g5
sg14
I3024756
sg15
I2672
sg16
g5
sg17
I63
sg18
I3083
sg19
g5
sg20
I1000000
sg21
I360528
sg22
I67
sg23
I14
sg24
I360528
sg25
I273746
sg26
I2664228
sg27
g5
ssS'LAVORATO JOHN J'
p146
(dp147
g3
I7259
sg4
g5
sg6
I49537
sg7
I00
sg8
g5
sg9
S'john.lavorato@enron.com'
p148
sg11
I2035380
sg12
F0.09538805363673304
sg13
g5
sg14
I15592901
sg15
I3962
sg16
g5
sg17
I2585
sg18
I1552
sg19
g5
sg20
I8000000
sg21
I5167144
sg22
I528
sg23
I411
sg24
I1008149
sg25
I339288
sg26
I10425757
sg27
I4158995
ssS'BERBERIAN DAVID'
p149
(dp150
g3
g5
sg4
g5
sg6
I11892
sg7
I00
sg8
g5
sg9
S'david.berberian@enron.com'
p151
sg11
g5
sg12
I0
sg13
g5
sg14
I2722090
sg15
g5
sg16
g5
sg17
g5
sg18
g5
sg19
g5
sg20
g5
sg21
I2493616
sg22
g5
sg23
g5
sg24
I869220
sg25
I216582
sg26
I228474
sg27
I1624396
ssS'DETMERING TIMOTHY J'
p152
(dp153
g3
g5
sg4
I875307
sg6
I52255
sg7
I00
sg8
I-775241
sg9
S'timothy.detmering@enron.com'
p154
sg11
I415657
sg12
I0
sg13
I-315068
sg14
I3232448
sg15
g5
sg16
g5
sg17
g5
sg18
I1105
sg19
g5
sg20
I425000
sg21
I2027865
sg22
g5
sg23
g5
sg24
I315068
sg25
I210500
sg26
I1204583
sg27
I2027865
ssS'WAKEHAM JOHN'
p155
(dp156
g3
g5
sg4
g5
sg6
I103773
sg7
I00
sg8
g5
sg9
g5
sg11
g5
sg12
I0
sg13
g5
sg14
g36
sg15
g5
sg16
g5
sg17
g5
sg18
g5
sg19
I109298
sg20
g5
sg21
g5
sg22
g5
sg23
g5
sg24
g5
sg25
g5
sg26
I213071
sg27
g5
ssS'POWERS WILLIAM'
p157
(dp158
g3
I653
sg4
g5
sg6
g5
sg7
I00
sg8
I-17500
sg9
S'ken.powers@enron.com'
p159
sg11
g5
sg12
F0.0
sg13
g5
sg14
g36
sg15
I12
sg16
g5
sg17
I26
sg18
g5
sg19
I17500
sg20
g5
sg21
g5
sg22
I0
sg23
I0
sg24
g5
sg25
g5
sg26
g5
sg27
g5
ssS'GOLD JOSEPH'
p160
(dp161
g3
g5
sg4
g5
sg6
g5
sg7
I00
sg8
g5
sg9
S'joe.gold@enron.com'
p162
sg11
I304805
sg12
I0
sg13
g5
sg14
I3024584
sg15
g5
sg16
g5
sg17
g5
sg18
I819288
sg19
g5
sg20
I750000
sg21
I877611
sg22
g5
sg23
g5
sg24
I441096
sg25
I272880
sg26
I2146973
sg27
I436515
ssS'BANNANTINE JAMES M'
p163
(dp164
g3
I566
sg4
g5
sg6
I56301
sg7
I00
sg8
I-5104
sg9
S'james.bannantine@enron.com'
p165
sg11
g5
sg12
F0.06554621848739496
sg13
I-560222
sg14
I6159684
sg15
I465
sg16
g5
sg17
I29
sg18
I864523
sg19
g5
sg20
g5
sg21
I5243487
sg22
I39
sg23
I0
sg24
I1757552
sg25
I477
sg26
I916197
sg27
I4046157
ssS'DUNCAN JOHN H'
p166
(dp167
g3
g5
sg4
g5
sg6
g5
sg7
I00
sg8
I-25000
sg9
g5
sg11
g5
sg12
I0
sg13
g5
sg14
I449242
sg15
g5
sg16
g5
sg17
g5
sg18
g5
sg19
I102492
sg20
g5
sg21
I371750
sg22
g5
sg23
g5
sg24
g5
sg25
g5
sg26
I77492
sg27
I371750
ssS'SHAPIRO RICHARD S'
p168
(dp169
g3
I15149
sg4
g5
sg6
I137767
sg7
I00
sg8
g5
sg9
S'richard.shapiro@enron.com'
p170
sg11
g5
sg12
F0.00849425568320704
sg13
g5
sg14
I2044549
sg15
I4527
sg16
g5
sg17
I1215
sg18
I705
sg19
g5
sg20
I650000
sg21
I987001
sg22
I74
sg23
I65
sg24
I379164
sg25
I269076
sg26
I1057548
sg27
I607837
ssS'SHERRIFF JOHN R'
p171
(dp172
g3
I3187
sg4
g5
sg6
g5
sg7
I00
sg8
g5
sg9
S'john.sherriff@enron.com'
p173
sg11
I554422
sg12
F0.01555352241537054
sg13
g5
sg14
I7464370
sg15
I2103
sg16
g5
sg17
I92
sg18
I1852186
sg19
g5
sg20
I1500000
sg21
I3128982
sg22
I28
sg23
I23
sg24
I1293424
sg25
I428780
sg26
I4335388
sg27
I1835558
ssS'SHELBY REX'
p174
(dp175
g3
I225
sg4
g5
sg6
I22884
sg7
I01
sg8
I-4167
sg9
S'rex.shelby@enron.com'
p176
sg11
g5
sg12
F0.10227272727272728
sg13
g5
sg14
I4497501
sg15
I91
sg16
g5
sg17
I39
sg18
I1573324
sg19
g5
sg20
I200000
sg21
I2493616
sg22
I13
sg23
I14
sg24
I869220
sg25
I211844
sg26
I2003885
sg27
I1624396
ssS'LEMAISTRE CHARLES'
p177
(dp178
g3
g5
sg4
g5
sg6
g5
sg7
I00
sg8
I-25000
sg9
g5
sg11
g5
sg12
I0
sg13
g5
sg14
I500370
sg15
g5
sg16
g5
sg17
g5
sg18
g5
sg19
I112492
sg20
g5
sg21
I412878
sg22
g5
sg23
g5
sg24
g5
sg25
g5
sg26
I87492
sg27
I412878
ssS'DEFFNER JOSEPH M'
p179
(dp180
g3
I714
sg4
g5
sg6
I41626
sg7
I00
sg8
g5
sg9
S'joseph.deffner@enron.com'
p181
sg11
I335349
sg12
F0.15101522842639595
sg13
g5
sg14
I1367860
sg15
I552
sg16
g5
sg17
I74
sg18
I25553
sg19
g5
sg20
I600000
sg21
I159211
sg22
I115
sg23
I4
sg24
I141833
sg25
I206121
sg26
I1208649
sg27
I17378
ssS'KISHKILL JOSEPH G'
p182
(dp183
g3
g5
sg4
g5
sg6
I116335
sg7
I00
sg8
I-51042
sg9
S'joe.kishkill@enron.com'
p184
sg11
g5
sg12
I0
sg13
g5
sg14
I1739242
sg15
g5
sg16
g5
sg17
g5
sg18
I465357
sg19
g5
sg20
g5
sg21
I1034346
sg22
g5
sg23
g5
sg24
I1034346
sg25
I174246
sg26
I704896
sg27
g5
ssS'WHALLEY LAWRENCE G'
p185
(dp186
g3
I6019
sg4
g5
sg6
I57838
sg7
I00
sg8
g5
sg9
S'greg.whalley@enron.com'
p187
sg11
I808346
sg12
F0.03193916349809886
sg13
g5
sg14
I10756711
sg15
I3920
sg16
g5
sg17
I556
sg18
I301026
sg19
g5
sg20
I3000000
sg21
I6079137
sg22
I186
sg23
I24
sg24
I2796177
sg25
I510364
sg26
I4677574
sg27
I3282960
ssS'MCCONNELL MICHAEL S'
p188
(dp189
g3
I3329
sg4
g5
sg6
I81364
sg7
I00
sg8
g5
sg9
S'mike.mcconnell@enron.com'
p190
sg11
I554422
sg12
F0.047109207708779445
sg13
g5
sg14
I5202643
sg15
I2189
sg16
g5
sg17
I2742
sg18
I540
sg19
g5
sg20
I1100000
sg21
I3101279
sg22
I92
sg23
I194
sg24
I1478269
sg25
I365038
sg26
I2101364
sg27
I1623010
ssS'PIRO JIM'
p191
(dp192
g3
I58
sg4
g5
sg6
g5
sg7
I00
sg8
g5
sg9
S'jim.piro@enron.com'
p193
sg11
g5
sg12
F0.013513513513513514
sg13
g5
sg14
g36
sg15
I3
sg16
g5
sg17
I16
sg18
g5
sg19
g5
sg20
g5
sg21
I47304
sg22
I0
sg23
I1
sg24
I47304
sg25
g5
sg26
g5
sg27
g5
ssS'DELAINEY DAVID W'
p194
(dp195
g3
I3093
sg4
g5
sg6
I86174
sg7
I01
sg8
g5
sg9
S'david.delainey@enron.com'
p196
sg11
I1294981
sg12
F0.10954235637779941
sg13
g5
sg14
I8362240
sg15
I2097
sg16
g5
sg17
I3069
sg18
I1661
sg19
g5
sg20
I3000000
sg21
I3614261
sg22
I66
sg23
I609
sg24
I1323148
sg25
I365163
sg26
I4747979
sg27
I2291113
ssS'SULLIVAN-SHAKLOVITZ COLLEEN'
p197
(dp198
g3
g5
sg4
I181993
sg6
g5
sg7
I00
sg8
g5
sg9
g5
sg11
I554422
sg12
I0
sg13
g5
sg14
I2361731
sg15
g5
sg16
g5
sg17
g5
sg18
I162
sg19
g5
sg20
I100000
sg21
I1362375
sg22
g5
sg23
g5
sg24
g5
sg25
I162779
sg26
I999356
sg27
I1362375
ssS'WROBEL BRUCE'
p199
(dp200
g3
g5
sg4
g5
sg6
g5
sg7
I00
sg8
g5
sg9
g5
sg11
g5
sg12
I0
sg13
g5
sg14
g36
sg15
g5
sg16
g5
sg17
g5
sg18
g5
sg19
g5
sg20
g5
sg21
I139130
sg22
g5
sg23
g5
sg24
g5
sg25
g5
sg26
g5
sg27
I139130
ssS'LINDHOLM TOD A'
p201
(dp202
g3
g5
sg4
I204075
sg6
I57727
sg7
I00
sg8
g5
sg9
S'tod.lindholm@enron.com'
p203
sg11
I175000
sg12
I0
sg13
g5
sg14
I3940097
sg15
g5
sg16
g5
sg17
g5
sg18
I2630
sg19
g5
sg20
I200000
sg21
I3064208
sg22
g5
sg23
g5
sg24
I514847
sg25
I236457
sg26
I875889
sg27
I2549361
ssS'MEYER JEROME J'
p204
(dp205
g3
g5
sg4
g5
sg6
I2151
sg7
I00
sg8
I-38346
sg9
g5
sg11
g5
sg12
I0
sg13
g5
sg14
g36
sg15
g5
sg16
g5
sg17
g5
sg18
g5
sg19
I38346
sg20
g5
sg21
g5
sg22
g5
sg23
g5
sg24
g5
sg25
g5
sg26
I2151
sg27
g5
ssS'LAY KENNETH L'
p206
(dp207
g3
I4273
sg4
I202911
sg6
I99832
sg7
I01
sg8
I-300000
sg9
S'kenneth.lay@enron.com'
p208
sg11
I3600000
sg12
F0.03225806451612903
sg13
g5
sg14
I152669871
sg15
I2411
sg16
I81525000
sg17
I36
sg18
I10359729
sg19
g5
sg20
I7000000
sg21
I49110078
sg22
I123
sg23
I16
sg24
I14761694
sg25
I1072321
sg26
I103559793
sg27
I34348384
ssS'BUTTS ROBERT H'
p209
(dp210
g3
g5
sg4
g5
sg6
I9410
sg7
I00
sg8
I-75000
sg9
S'bob.butts@enron.com'
p211
sg11
I175000
sg12
I0
sg13
g5
sg14
I1689201
sg15
g5
sg16
g5
sg17
g5
sg18
I150656
sg19
g5
sg20
I750000
sg21
I417619
sg22
g5
sg23
g5
sg24
I417619
sg25
I261516
sg26
I1271582
sg27
g5
ssS'OLSON CINDY K'
p212
(dp213
g3
I1184
sg4
I77716
sg6
I63791
sg7
I00
sg8
g5
sg9
S'cindy.olson@enron.com'
p214
sg11
I100000
sg12
F0.02831715210355987
sg13
g5
sg14
I3928320
sg15
I856
sg16
g5
sg17
I52
sg18
I972
sg19
g5
sg20
I750000
sg21
I2606763
sg22
I20
sg23
I15
sg24
I969729
sg25
I329078
sg26
I1321557
sg27
I1637034
ssS'MCDONALD REBECCA'
p215
(dp216
g3
I894
sg4
g5
sg6
g5
sg7
I00
sg8
g5
sg9
S'rebecca.mcdonald@enron.com'
p217
sg11
g5
sg12
F0.06063947078280044
sg13
g5
sg14
g36
sg15
I720
sg16
g5
sg17
I13
sg18
g5
sg19
g5
sg20
g5
sg21
I1691366
sg22
I54
sg23
I1
sg24
I934065
sg25
g5
sg26
g5
sg27
I757301
ssS'CUMBERLAND MICHAEL S'
p218
(dp219
g3
g5
sg4
g5
sg6
I22344
sg7
I00
sg8
g5
sg9
g5
sg11
I275000
sg12
I0
sg13
g5
sg14
I1015896
sg15
g5
sg16
g5
sg17
g5
sg18
I713
sg19
g5
sg20
I325000
sg21
I207940
sg22
g5
sg23
g5
sg24
I207940
sg25
I184899
sg26
I807956
sg27
g5
ssS'GAHN ROBERT S'
p220
(dp221
g3
g5
sg4
I73122
sg6
I50080
sg7
I00
sg8
I-1042
sg9
g5
sg11
g5
sg12
I0
sg13
g5
sg14
I1219192
sg15
g5
sg16
g5
sg17
g5
sg18
I76547
sg19
g5
sg20
I509870
sg21
I318607
sg22
g5
sg23
g5
sg24
I235370
sg25
I192008
sg26
I900585
sg27
I83237
ssS'MCCLELLAN GEORGE'
p222
(dp223
g3
I1744
sg4
g5
sg6
I228763
sg7
I00
sg8
I-125000
sg9
S'george.mcclellan@enron.com'
p224
sg11
g5
sg12
F0.029001673173452314
sg13
g5
sg14
I2266624
sg15
I1469
sg16
g5
sg17
I49
sg18
I51587
sg19
g5
sg20
I900000
sg21
I947861
sg22
I52
sg23
I0
sg24
I441096
sg25
I263413
sg26
I1318763
sg27
I506765
ssS'HERMANN ROBERT J'
p225
(dp226
g3
g5
sg4
g5
sg6
I48357
sg7
I00
sg8
I-280000
sg9
S'robert.hermann@enron.com'
p227
sg11
I150000
sg12
I0
sg13
g5
sg14
I1965593
sg15
g5
sg16
g5
sg17
g5
sg18
I416441
sg19
g5
sg20
I700000
sg21
I668132
sg22
g5
sg23
g5
sg24
I480632
sg25
I262663
sg26
I1297461
sg27
I187500
ssS'SCRIMSHAW MATTHEW'
p228
(dp229
g3
g5
sg4
g5
sg6
g5
sg7
I00
sg8
g5
sg9
S'matthew.scrimshaw@enron.com'
p230
sg11
g5
sg12
I0
sg13
g5
sg14
g36
sg15
g5
sg16
g5
sg17
g5
sg18
g5
sg19
g5
sg20
g5
sg21
I759557
sg22
g5
sg23
g5
sg24
g5
sg25
g5
sg26
g5
sg27
I759557
ssS'GATHMANN WILLIAM D'
p231
(dp232
g3
g5
sg4
g5
sg6
g5
sg7
I00
sg8
g5
sg9
g5
sg11
g5
sg12
I0
sg13
I-72419
sg14
g36
sg15
g5
sg16
g5
sg17
g5
sg18
g5
sg19
g5
sg20
g5
sg21
I1945360
sg22
g5
sg23
g5
sg24
I264013
sg25
g5
sg26
g5
sg27
I1753766
ssS'HAEDICKE MARK E'
p233
(dp234
g3
I4009
sg4
I2157527
sg6
I76169
sg7
I00
sg8
I-934484
sg9
S'mark.haedicke@enron.com'
p235
sg11
I983346
sg12
F0.04050420168067227
sg13
I-329825
sg14
I4662159
sg15
I1847
sg16
g5
sg17
I1941
sg18
I52382
sg19
g5
sg20
I1150000
sg21
I803094
sg22
I180
sg23
I61
sg24
I524169
sg25
I374125
sg26
I3859065
sg27
I608750
ssS'BOWEN JR RAYMOND M'
p236
(dp237
g3
I1858
sg4
g5
sg6
I65907
sg7
I01
sg8
I-833
sg9
S'raymond.bowen@enron.com'
p238
sg11
I974293
sg12
F0.08222811671087533
sg13
g5
sg14
I2921644
sg15
I1593
sg16
g5
sg17
I27
sg18
I1621
sg19
g5
sg20
I1350000
sg21
I252055
sg22
I140
sg23
I15
sg24
I252055
sg25
I278601
sg26
I2669589
sg27
g5
ssS'GILLIS JOHN'
p239
(dp240
g3
g5
sg4
g5
sg6
g5
sg7
I00
sg8
g5
sg9
g5
sg11
g5
sg12
I0
sg13
g5
sg14
g36
sg15
g5
sg16
g5
sg17
g5
sg18
g5
sg19
g5
sg20
g5
sg21
I85641
sg22
g5
sg23
g5
sg24
I75838
sg25
g5
sg26
g5
sg27
I9803
ssS'FITZGERALD JAY L'
p241
(dp242
g3
I936
sg4
g5
sg6
I23870
sg7
I00
sg8
g5
sg9
S'jay.fitzgerald@enron.com'
p243
sg11
I556416
sg12
F0.009453781512605041
sg13
g5
sg14
I3036093
sg15
I723
sg16
g5
sg17
I16
sg18
I285414
sg19
g5
sg20
I350000
sg21
I1621236
sg22
I1
sg23
I8
sg24
I956775
sg25
I199157
sg26
I1414857
sg27
I664461
ssS'MORAN MICHAEL P'
p244
(dp245
g3
I672
sg4
g5
sg6
g5
sg7
I00
sg8
g5
sg9
S'michael.moran@enron.com'
p246
sg11
g5
sg12
F0.0
sg13
g5
sg14
g36
sg15
I127
sg16
g5
sg17
I19
sg18
g5
sg19
g5
sg20
g5
sg21
I221141
sg22
I0
sg23
I0
sg24
I161602
sg25
g5
sg26
g5
sg27
I59539
ssS'REDMOND BRIAN L'
p247
(dp248
g3
I1671
sg4
g5
sg6
I14689
sg7
I00
sg8
g5
sg9
S'brian.redmond@enron.com'
p249
sg11
g5
sg12
F0.13372093023255813
sg13
g5
sg14
I8001853
sg15
I1063
sg16
g5
sg17
I221
sg18
g5
sg19
g5
sg20
g5
sg21
I7890324
sg22
I204
sg23
I49
sg24
I381285
sg25
I96840
sg26
I111529
sg27
I7509039
ssS'BAZELIDES PHILIP J'
p250
(dp251
g3
g5
sg4
I684694
sg6
g5
sg7
I00
sg8
g5
sg9
g5
sg11
I93750
sg12
I0
sg13
g5
sg14
I2459777
sg15
g5
sg16
g5
sg17
g5
sg18
I874
sg19
g5
sg20
g5
sg21
I1599641
sg22
g5
sg23
g5
sg24
g5
sg25
I80818
sg26
I860136
sg27
I1599641
ssS'BELDEN TIMOTHY N'
p252
(dp253
g3
I7991
sg4
I2144013
sg6
I17355
sg7
I01
sg8
I-2334434
sg9
S'tim.belden@enron.com'
p254
sg11
g5
sg12
F0.03964601769911504
sg13
g5
sg14
I6612335
sg15
I5521
sg16
g5
sg17
I484
sg18
I210698
sg19
g5
sg20
I5249999
sg21
I1110705
sg22
I228
sg23
I108
sg24
I157569
sg25
I213999
sg26
I5501630
sg27
I953136
ssS'DURAN WILLIAM D'
p255
(dp256
g3
I904
sg4
g5
sg6
I25785
sg7
I00
sg8
g5
sg9
S'w.duran@enron.com'
p257
sg11
I1105218
sg12
F0.11899563318777293
sg13
g5
sg14
I3734173
sg15
I599
sg16
g5
sg17
I12
sg18
I1568
sg19
g5
sg20
I750000
sg21
I1640910
sg22
I106
sg23
I3
sg24
I189041
sg25
I210692
sg26
I2093263
sg27
I1451869
ssS'THORN TERENCE H'
p258
(dp259
g3
I266
sg4
I16586
sg6
I46145
sg7
I00
sg8
g5
sg9
S'terence.thorn@enron.com'
p260
sg11
I200000
sg12
F0.0
sg13
g5
sg14
I5729249
sg15
I73
sg16
g5
sg17
I41
sg18
I426629
sg19
g5
sg20
g5
sg21
I4817796
sg22
I0
sg23
I0
sg24
I365320
sg25
I222093
sg26
I911453
sg27
I4452476
ssS'FASTOW ANDREW S'
p261
(dp262
g3
g5
sg4
g5
sg6
I55921
sg7
I01
sg8
I-1386055
sg9
S'andrew.fastow@enron.com'
p263
sg11
I1736055
sg12
I0
sg13
g5
sg14
I4218495
sg15
g5
sg16
g5
sg17
g5
sg18
I277464
sg19
g5
sg20
I1300000
sg21
I1794412
sg22
g5
sg23
g5
sg24
I1794412
sg25
I440698
sg26
I2424083
sg27
g5
ssS'FOY JOE'
p264
(dp265
g3
I57
sg4
I181755
sg6
g5
sg7
I00
sg8
g5
sg9
S'tracy.foy@enron.com'
p266
sg11
g5
sg12
F0.0
sg13
g5
sg14
I525189
sg15
I2
sg16
g5
sg17
I13
sg18
g5
sg19
g5
sg20
g5
sg21
I343434
sg22
I0
sg23
I0
sg24
g5
sg25
g5
sg26
I181755
sg27
I343434
ssS'CALGER CHRISTOPHER F'
p267
(dp268
g3
I2598
sg4
g5
sg6
I35818
sg7
I01
sg8
I-262500
sg9
S'christopher.calger@enron.com'
p269
sg11
I375304
sg12
F0.08169219547775347
sg13
g5
sg14
I1765324
sg15
I2188
sg16
g5
sg17
I144
sg18
I486
sg19
g5
sg20
I1250000
sg21
I126027
sg22
I199
sg23
I25
sg24
I126027
sg25
I240189
sg26
I1639297
sg27
g5
ssS'RICE KENNETH D'
p270
(dp271
g3
I905
sg4
g5
sg6
I46950
sg7
I01
sg8
I-3504386
sg9
S'ken.rice@enron.com'
p272
sg11
I1617011
sg12
F0.04983748645720477
sg13
g5
sg14
I23047589
sg15
I864
sg16
g5
sg17
I18
sg18
I174839
sg19
g5
sg20
I1750000
sg21
I22542539
sg22
I42
sg23
I4
sg24
I2748364
sg25
I420636
sg26
I505050
sg27
I19794175
ssS'KAMINSKI WINCENTY J'
p273
(dp274
g3
I4607
sg4
g5
sg6
I83585
sg7
I00
sg8
g5
sg9
S'vince.kaminski@enron.com'
p275
sg11
I323466
sg12
F0.011172595520421607
sg13
g5
sg14
I2062858
sg15
I583
sg16
g5
sg17
I14368
sg18
I4669
sg19
g5
sg20
I400000
sg21
I976037
sg22
I41
sg23
I171
sg24
I126027
sg25
I275101
sg26
I1086821
sg27
I850010
ssS'LOCKHART EUGENE E'
p276
(dp277
g3
g5
sg4
g5
sg6
g5
sg7
I00
sg8
g5
sg9
g5
sg11
g5
sg12
I0
sg13
g5
sg14
g36
sg15
g5
sg16
g5
sg17
g5
sg18
g5
sg19
g5
sg20
g5
sg21
g5
sg22
g5
sg23
g5
sg24
g5
sg25
g5
sg26
g5
sg27
g5
ssS'COX DAVID'
p278
(dp279
g3
I102
sg4
g5
sg6
I27861
sg7
I00
sg8
I-41250
sg9
S'chip.cox@enron.com'
p280
sg11
g5
sg12
F0.02962962962962963
sg13
g5
sg14
I1597026
sg15
I71
sg16
g5
sg17
I33
sg18
I494
sg19
g5
sg20
I800000
sg21
I495633
sg22
I0
sg23
I4
sg24
I378082
sg25
I314288
sg26
I1101393
sg27
I117551
ssS'OVERDYKE JR JERE C'
p281
(dp282
g3
g5
sg4
g5
sg6
I18834
sg7
I00
sg8
g5
sg9
S'jere.overdyke@enron.com'
p283
sg11
I135836
sg12
I0
sg13
g5
sg14
I7557381
sg15
g5
sg16
g5
sg17
g5
sg18
I176
sg19
g5
sg20
g5
sg21
I7307594
sg22
g5
sg23
g5
sg24
I2041016
sg25
I94941
sg26
I249787
sg27
I5266578
ssS'PEREIRA PAULO V. FERRAZ'
p284
(dp285
g3
g5
sg4
g5
sg6
I27942
sg7
I00
sg8
I-101250
sg9
g5
sg11
g5
sg12
I0
sg13
g5
sg14
g36
sg15
g5
sg16
g5
sg17
g5
sg18
g5
sg19
I101250
sg20
g5
sg21
g5
sg22
g5
sg23
g5
sg24
g5
sg25
g5
sg26
I27942
sg27
g5
ssS'STABLER FRANK'
p286
(dp287
g3
g5
sg4
g5
sg6
I16514
sg7
I00
sg8
g5
sg9
S'frank.stabler@enron.com'
p288
sg11
g5
sg12
I0
sg13
g5
sg14
I1623821
sg15
g5
sg16
g5
sg17
g5
sg18
I356071
sg19
g5
sg20
I500000
sg21
I511734
sg22
g5
sg23
g5
sg24
I511734
sg25
I239502
sg26
I1112087
sg27
g5
ssS'SKILLING JEFFREY K'
p289
(dp290
g3
I3627
sg4
g5
sg6
I29336
sg7
I01
sg8
g5
sg9
S'jeff.skilling@enron.com'
p291
sg11
I1920000
sg12
F0.03159303882195449
sg13
g5
sg14
I34776388
sg15
I2042
sg16
g5
sg17
I108
sg18
I22122
sg19
g5
sg20
I5600000
sg21
I26093672
sg22
I88
sg23
I30
sg24
I6843672
sg25
I1111258
sg26
I8682716
sg27
I19250000
ssS'BLAKE JR. NORMAN P'
p292
(dp293
g3
g5
sg4
g5
sg6
I1279
sg7
I00
sg8
I-113784
sg9
g5
sg11
g5
sg12
I0
sg13
g5
sg14
g36
sg15
g5
sg16
g5
sg17
g5
sg18
g5
sg19
I113784
sg20
g5
sg21
g5
sg22
g5
sg23
g5
sg24
g5
sg25
g5
sg26
I1279
sg27
g5
ssS'SHERRICK JEFFREY B'
p294
(dp295
g3
I613
sg4
g5
sg6
g5
sg7
I00
sg8
g5
sg9
S'jeffrey.sherrick@enron.com'
p296
sg11
g5
sg12
F0.08934169278996865
sg13
g5
sg14
g36
sg15
I583
sg16
g5
sg17
I25
sg18
g5
sg19
g5
sg20
g5
sg21
I1832468
sg22
I39
sg23
I18
sg24
I405999
sg25
g5
sg26
g5
sg27
I1426469
ssS'PRENTICE JAMES'
p297
(dp298
g3
g5
sg4
I564348
sg6
g5
sg7
I00
sg8
g5
sg9
S'james.prentice@enron.com'
p299
sg11
g5
sg12
I0
sg13
g5
sg14
I1659388
sg15
g5
sg16
g5
sg17
g5
sg18
g5
sg19
g5
sg20
g5
sg21
I1095040
sg22
g5
sg23
g5
sg24
I208809
sg25
g5
sg26
I564348
sg27
I886231
ssS'GRAY RODNEY'
p300
(dp301
g3
g5
sg4
I93585
sg6
g5
sg7
I00
sg8
g5
sg9
g5
sg11
I365625
sg12
I0
sg13
g5
sg14
g36
sg15
g5
sg16
g5
sg17
g5
sg18
I680833
sg19
g5
sg20
g5
sg21
g5
sg22
g5
sg23
g5
sg24
g5
sg25
I6615
sg26
I1146658
sg27
g5
ssS'PICKERING MARK R'
p302
(dp303
g3
I898
sg4
g5
sg6
I31653
sg7
I00
sg8
g5
sg9
S'mark.pickering@enron.com'
p304
sg11
g5
sg12
F0.007253886010362694
sg13
g5
sg14
I1415488
sg15
I728
sg16
I400000
sg17
I67
sg18
g5
sg19
g5
sg20
I300000
sg21
I28798
sg22
I7
sg23
I0
sg24
g5
sg25
I655037
sg26
I1386690
sg27
I28798
ssS'NOLES JAMES L'
p305
(dp306
g3
g5
sg4
I774401
sg6
g5
sg7
I00
sg8
g5
sg9
g5
sg11
g5
sg12
I0
sg13
I-94556
sg14
I1143106
sg15
g5
sg16
g5
sg17
g5
sg18
g5
sg19
g5
sg20
g5
sg21
I368705
sg22
g5
sg23
g5
sg24
I463261
sg25
g5
sg26
I774401
sg27
g5
ssS'KEAN STEVEN J'
p307
(dp308
g3
I12754
sg4
g5
sg6
I41953
sg7
I00
sg8
g5
sg9
S'steven.kean@enron.com'
p309
sg11
I300000
sg12
F0.02700763593501768
sg13
g5
sg14
I7901164
sg15
I3639
sg16
g5
sg17
I6759
sg18
I1231
sg19
g5
sg20
I1000000
sg21
I6153642
sg22
I140
sg23
I387
sg24
I4131594
sg25
I404338
sg26
I1747522
sg27
I2022048
ssS'FOWLER PEGGY'
p310
(dp311
g3
I517
sg4
g5
sg6
g5
sg7
I00
sg8
g5
sg9
S'kulvinder.fowler@enron.com'
p312
sg11
g5
sg12
F0.0
sg13
g5
sg14
g36
sg15
I10
sg16
g5
sg17
I36
sg18
g5
sg19
g5
sg20
g5
sg21
I1884748
sg22
I0
sg23
I0
sg24
I560170
sg25
g5
sg26
g5
sg27
I1324578
ssS'WASAFF GEORGE'
p313
(dp314
g3
I400
sg4
I831299
sg6
g5
sg7
I00
sg8
I-583325
sg9
S'george.wasaff@enron.com'
p315
sg11
I200000
sg12
F0.06744186046511629
sg13
g5
sg14
I3090822
sg15
I337
sg16
g5
sg17
I30
sg18
I1425
sg19
g5
sg20
I325000
sg21
I2056427
sg22
I22
sg23
I7
sg24
I388167
sg25
I259996
sg26
I1034395
sg27
I1668260
ssS'WHITE JR THOMAS E'
p316
(dp317
g3
g5
sg4
g5
sg6
I81353
sg7
I00
sg8
g5
sg9
S'thomas.white@enron.com'
p318
sg11
g5
sg12
I0
sg13
g5
sg14
I17078482
sg15
g5
sg16
g5
sg17
g5
sg18
I1085463
sg19
g5
sg20
I450000
sg21
I15144123
sg22
g5
sg23
g5
sg24
I13847074
sg25
I317543
sg26
I1934359
sg27
I1297049
ssS'CHRISTODOULOU DIOMEDES'
p319
(dp320
g3
g5
sg4
g5
sg6
g5
sg7
I00
sg8
g5
sg9
S'diomedes.christodoulou@enron.com'
p321
sg11
g5
sg12
I0
sg13
g5
sg14
g36
sg15
g5
sg16
g5
sg17
g5
sg18
g5
sg19
g5
sg20
g5
sg21
I6077885
sg22
g5
sg23
g5
sg24
I950730
sg25
g5
sg26
g5
sg27
I5127155
ssS'ALLEN PHILLIP K'
p322
(dp323
g3
I2902
sg4
I2869717
sg6
I13868
sg7
I00
sg8
I-3081055
sg9
S'phillip.allen@enron.com'
p324
sg11
I304805
sg12
F0.0219737100255052
sg13
I-126027
sg14
I6213983
sg15
I1407
sg16
g5
sg17
I2195
sg18
I152
sg19
g5
sg20
I4175000
sg21
I1729541
sg22
I47
sg23
I65
sg24
I126027
sg25
I201955
sg26
I4484442
sg27
I1729541
ssS'SHARP VICTORIA T'
p325
(dp326
g3
I3136
sg4
I187469
sg6
I116337
sg7
I00
sg8
g5
sg9
S'vicki.sharp@enron.com'
p327
sg11
I422158
sg12
F0.009168704156479218
sg13
g5
sg14
I2070647
sg15
I2477
sg16
g5
sg17
I136
sg18
I2401
sg19
g5
sg20
I600000
sg21
I494136
sg22
I24
sg23
I6
sg24
I213063
sg25
I248146
sg26
I1576511
sg27
I281073
ssS'JAEDICKE ROBERT'
p328
(dp329
g3
g5
sg4
g5
sg6
g5
sg7
I00
sg8
I-25000
sg9
g5
sg11
g5
sg12
I0
sg13
I-44093
sg14
I515500
sg15
g5
sg16
g5
sg17
g5
sg18
g5
sg19
I108750
sg20
g5
sg21
I431750
sg22
g5
sg23
g5
sg24
I44093
sg25
g5
sg26
I83750
sg27
I431750
ssS'WINOKUR JR. HERBERT S'
p330
(dp331
g3
g5
sg4
g5
sg6
I1413
sg7
I00
sg8
I-25000
sg9
g5
sg11
g5
sg12
I0
sg13
g5
sg14
g36
sg15
g5
sg16
g5
sg17
g5
sg18
g5
sg19
I108579
sg20
g5
sg21
g5
sg22
g5
sg23
g5
sg24
g5
sg25
g5
sg26
I84992
sg27
g5
ssS'BROWN MICHAEL'
p332
(dp333
g3
I1486
sg4
g5
sg6
I49288
sg7
I00
sg8
g5
sg9
S'michael.brown@enron.com'
p334
sg11
g5
sg12
F0.0091683038637852
sg13
g5
sg14
g36
sg15
I761
sg16
g5
sg17
I41
sg18
g5
sg19
g5
sg20
g5
sg21
g5
sg22
I13
sg23
I1
sg24
g5
sg25
g5
sg26
I49288
sg27
g5
ssS'BADUM JAMES P'
p335
(dp336
g3
g5
sg4
I178980
sg6
I3486
sg7
I00
sg8
g5
sg9
g5
sg11
g5
sg12
I0
sg13
g5
sg14
I440283
sg15
g5
sg16
g5
sg17
g5
sg18
g5
sg19
g5
sg20
g5
sg21
I257817
sg22
g5
sg23
g5
sg24
g5
sg25
g5
sg26
I182466
sg27
I257817
ssS'HUGHES JAMES A'
p337
(dp338
g3
I719
sg4
g5
sg6
g5
sg7
I00
sg8
g5
sg9
S'james.hughes@enron.com'
p339
sg11
g5
sg12
F0.05312084993359894
sg13
g5
sg14
g36
sg15
I589
sg16
g5
sg17
I34
sg18
g5
sg19
g5
sg20
g5
sg21
I1118394
sg22
I35
sg23
I5
sg24
I363428
sg25
g5
sg26
g5
sg27
I754966
ssS'REYNOLDS LAWRENCE'
p340
(dp341
g3
g5
sg4
I51365
sg6
I8409
sg7
I00
sg8
I-200000
sg9
g5
sg11
I156250
sg12
I0
sg13
I-140264
sg14
I4616366
sg15
g5
sg16
g5
sg17
g5
sg18
I202052
sg19
g5
sg20
I100000
sg21
I4221891
sg22
g5
sg23
g5
sg24
I201483
sg25
I76399
sg26
I394475
sg27
I4160672
ssS'DIMICHELE RICHARD G'
p342
(dp343
g3
g5
sg4
g5
sg6
I35812
sg7
I00
sg8
g5
sg9
S'richard.dimichele@enron.com'
p344
sg11
I694862
sg12
I0
sg13
g5
sg14
I10685933
sg15
g5
sg16
g5
sg17
g5
sg18
I374689
sg19
g5
sg20
I1000000
sg21
I8317782
sg22
g5
sg23
g5
sg24
I126027
sg25
I262788
sg26
I2368151
sg27
I8191755
ssS'BHATNAGAR SANJAY'
p345
(dp346
g3
I523
sg4
g5
sg6
g5
sg7
I00
sg8
g5
sg9
S'sanjay.bhatnagar@enron.com'
p347
sg11
g5
sg12
F0.0018115942028985507
sg13
I15456290
sg14
g36
sg15
I463
sg16
g5
sg17
I29
sg18
I137864
sg19
I137864
sg20
g5
sS'total_stock_value'
p348
S'NaN'
p349
sg22
I0
sg23
I1
sg24
I-2604490
sg25
g5
sg26
I15456290
sg27
I2604490
ssS'CARTER REBECCA C'
p350
(dp351
g3
I312
sg4
g5
sg6
g5
sg7
I00
sg8
I-159792
sg9
S'rebecca.carter@enron.com'
p352
sg11
I75000
sg12
F0.11009174311926606
sg13
I-307301
sg14
g36
sg15
I196
sg16
g5
sg17
I15
sg18
I540
sg19
g5
sg20
I300000
sg21
g5
sg22
I29
sg23
I7
sg24
I307301
sg25
I261809
sg26
I477557
sg27
g5
ssS'BUCHANAN HAROLD G'
p353
(dp354
g3
I1088
sg4
g5
sg6
I600
sg7
I00
sg8
g5
sg9
S'john.buchanan@enron.com'
p355
sg11
I304805
sg12
F0.0
sg13
g5
sg14
I2069142
sg15
I23
sg16
g5
sg17
I125
sg18
I1215
sg19
g5
sg20
I500000
sg21
I1014505
sg22
I0
sg23
I0
sg24
I189041
sg25
I248017
sg26
I1054637
sg27
I825464
ssS'YEAP SOON'
p356
(dp357
g3
g5
sg4
g5
sg6
I55097
sg7
I00
sg8
g5
sg9
g5
sg11
g5
sg12
I0
sg13
g5
sg14
I247855
sg15
g5
sg16
g5
sg17
g5
sg18
g5
sg19
g5
sg20
g5
sg21
I192758
sg22
g5
sg23
g5
sg24
g5
sg25
g5
sg26
I55097
sg27
I192758
ssS'MURRAY JULIA H'
p358
(dp359
g3
I2192
sg4
g5
sg6
I57580
sg7
I00
sg8
g5
sg9
S'julia.murray@enron.com'
p360
sg11
I125000
sg12
F0.00581135449262405
sg13
g5
sg14
I1409655
sg15
I395
sg16
g5
sg17
I45
sg18
I330
sg19
g5
sg20
I400000
sg21
I597461
sg22
I11
sg23
I2
sg24
I196983
sg25
I229284
sg26
I812194
sg27
I400478
ssS'GARLAND C KEVIN'
p361
(dp362
g3
I209
sg4
g5
sg6
I48405
sg7
I00
sg8
g5
sg9
S'kevin.garland@enron.com'
p363
sg11
I375304
sg12
F0.14624505928853754
sg13
g5
sg14
I2462622
sg15
I178
sg16
g5
sg17
I44
sg18
I60814
sg19
g5
sg20
I850000
sg21
I896153
sg22
I10
sg23
I27
sg24
I259907
sg25
I231946
sg26
I1566469
sg27
I636246
ssS'DODSON KEITH'
p364
(dp365
g3
I176
sg4
g5
sg6
I28164
sg7
I00
sg8
g5
sg9
S'keith.dodson@enron.com'
p366
sg11
g5
sg12
F0.06842105263157895
sg13
g5
sg14
g36
sg15
I114
sg16
g5
sg17
I14
sg18
I774
sg19
g5
sg20
I70000
sg21
g5
sg22
I10
sg23
I3
sg24
g5
sg25
I221003
sg26
I319941
sg27
g5
ssS'YEAGER F SCOTT'
p367
(dp368
g3
g5
sg4
g5
sg6
I53947
sg7
I01
sg8
g5
sg9
S'scott.yeager@enron.com'
p369
sg11
g5
sg12
I0
sg13
g5
sg14
I12245058
sg15
g5
sg16
g5
sg17
g5
sg18
I147950
sg19
g5
sg20
g5
sg21
I11884758
sg22
g5
sg23
g5
sg24
I3576206
sg25
I158403
sg26
I360300
sg27
I8308552
ssS'HIRKO JOSEPH'
p370
(dp371
g3
g5
sg4
I10259
sg6
I77978
sg7
I01
sg8
g5
sg9
S'joe.hirko@enron.com'
p372
sg11
g5
sg12
I0
sg13
g5
sg14
I30857157
sg15
g5
sg16
g5
sg17
g5
sg18
I2856
sg19
g5
sg20
g5
sg21
I30766064
sg22
g5
sg23
g5
sg24
g5
sg25
g5
sg26
I91093
sg27
I30766064
ssS'DIETRICH JANET R'
p373
(dp374
g3
I2572
sg4
g5
sg6
I3475
sg7
I00
sg8
g5
sg9
S'janet.dietrich@enron.com'
p375
sg11
I556416
sg12
F0.12106261859582543
sg13
g5
sg14
I3275551
sg15
I1902
sg16
g5
sg17
I63
sg18
I473
sg19
g5
sg20
I600000
sg21
I1865087
sg22
I305
sg23
I14
sg24
I315068
sg25
I250100
sg26
I1410464
sg27
I1550019
ssS'DERRICK JR. JAMES V'
p376
(dp377
g3
I2181
sg4
g5
sg6
I51124
sg7
I00
sg8
I-1284000
sg9
S'james.derrick@enron.com'
p378
sg11
I484000
sg12
F0.027184466019417475
sg13
I-1787380
sg14
I9382894
sg15
I1401
sg16
g5
sg17
I909
sg18
I7482
sg19
g5
sg20
I800000
sg21
I8831913
sg22
I64
sg23
I20
sg24
I1787380
sg25
I492375
sg26
I550981
sg27
I8831913
ssS'FREVERT MARK A'
p379
(dp380
g3
I3275
sg4
I6426990
sg6
I86987
sg7
I00
sg8
I-3367011
sg9
S'mark.frevert@enron.com'
p381
sg11
I1617011
sg12
F0.07524271844660194
sg13
g5
sg14
I31874715
sg15
I2979
sg16
I2000000
sg17
I21
sg18
I7427621
sg19
g5
sg20
I2000000
sg21
I14622185
sg22
I242
sg23
I6
sg24
I4188667
sg25
I1060932
sg26
I17252530
sg27
I10433518
ssS'PAI LOU L'
p382
(dp383
g3
g5
sg4
g5
sg6
I32047
sg7
I00
sg8
g5
sg9
S'lou.pai@enron.com'
p384
sg11
g5
sg12
I0
sg13
g5
sg14
I26941313
sg15
g5
sg16
g5
sg17
g5
sg18
I1829457
sg19
g5
sg20
I1000000
sg21
I23817930
sg22
g5
sg23
g5
sg24
I8453763
sg25
I261879
sg26
I3123383
sg27
I15364167
ssS'BAY FRANKLIN R'
p385
(dp386
g3
g5
sg4
I260455
sg6
I129142
sg7
I00
sg8
I-201641
sg9
S'frank.bay@enron.com'
p387
sg11
g5
sg12
I0
sg13
I-82782
sg14
I890710
sg15
g5
sg16
g5
sg17
g5
sg18
I69
sg19
g5
sg20
I400000
sg21
I63014
sg22
g5
sg23
g5
sg24
I145796
sg25
I239671
sg26
I827696
sg27
g5
ssS'HAYSLETT RODERICK J'
p388
(dp389
g3
I2649
sg4
g5
sg6
g5
sg7
I00
sg8
g5
sg9
S'rod.hayslett@enron.com'
p390
sg11
g5
sg12
F0.019676549865229112
sg13
g5
sg14
g36
sg15
I571
sg16
g5
sg17
I1061
sg18
g5
sg19
g5
sg20
g5
sg21
I346663
sg22
I35
sg23
I38
sg24
I346663
sg25
g5
sg26
g5
sg27
g5
ssS'FUGH JOHN L'
p391
(dp392
g3
g5
sg4
I50591
sg6
g5
sg7
I00
sg8
g5
sg9
g5
sg11
g5
sg12
I0
sg13
g5
sg14
I226969
sg15
g5
sg16
g5
sg17
g5
sg18
g5
sg19
g5
sg20
g5
sg21
I176378
sg22
g5
sg23
g5
sg24
g5
sg25
g5
sg26
I50591
sg27
I176378
ssS'FALLON JAMES B'
p393
(dp394
g3
I1755
sg4
g5
sg6
I95924
sg7
I00
sg8
g5
sg9
S'jim.fallon@enron.com'
p395
sg11
I374347
sg12
F0.04316939890710383
sg13
g5
sg14
I6008739
sg15
I1604
sg16
g5
sg17
I75
sg18
I401481
sg19
g5
sg20
I2500000
sg21
I2332399
sg22
I42
sg23
I37
sg24
I1392142
sg25
I304588
sg26
I3676340
sg27
I940257
ssS'KOENIG MARK E'
p396
(dp397
g3
I2374
sg4
g5
sg6
I127017
sg7
I01
sg8
g5
sg9
S'mark.koenig@enron.com'
p398
sg11
I300000
sg12
F0.02792607802874743
sg13
g5
sg14
I3507476
sg15
I2271
sg16
g5
sg17
I61
sg18
I150458
sg19
g5
sg20
I700000
sg21
I1920055
sg22
I53
sg23
I15
sg24
I1248318
sg25
I309946
sg26
I1587421
sg27
I671737
ssS'SAVAGE FRANK'
p399
(dp400
g3
g5
sg4
g5
sg6
g5
sg7
I00
sg8
I-121284
sg9
g5
sg11
g5
sg12
I0
sg13
g5
sg14
g36
sg15
g5
sg16
g5
sg17
g5
sg18
g5
sg19
I125034
sg20
g5
sg21
g5
sg22
g5
sg23
g5
sg24
g5
sg25
g5
sg26
I3750
sg27
g5
ssS'IZZO LAWRENCE L'
p401
(dp402
g3
I496
sg4
g5
sg6
I28093
sg7
I00
sg8
g5
sg9
S'larry.izzo@enron.com'
p403
sg11
I312500
sg12
F0.06407766990291262
sg13
g5
sg14
I7799576
sg15
I437
sg16
g5
sg17
I19
sg18
I1553729
sg19
g5
sg20
g5
sg21
I5819980
sg22
I28
sg23
I5
sg24
I3654808
sg25
I85274
sg26
I1979596
sg27
I2165172
ssS'TILNEY ELIZABETH A'
p404
(dp405
g3
I460
sg4
g5
sg6
g5
sg7
I00
sg8
I-575000
sg9
S'elizabeth.tilney@enron.com'
p406
sg11
I275000
sg12
F0.04384133611691023
sg13
g5
sg14
I1567435
sg15
I379
sg16
g5
sg17
I19
sg18
I152055
sg19
g5
sg20
I300000
sg21
I1168042
sg22
I10
sg23
I11
sg24
I576792
sg25
I247338
sg26
I399393
sg27
I591250
ssS'MARTIN AMANDA K'
p407
(dp408
g3
I1522
sg4
I85430
sg6
I8211
sg7
I00
sg8
g5
sg9
S'a..martin@enron.com'
p409
sg11
I5145434
sg12
F0.0045662100456621
sg13
g5
sg14
I10477322
sg15
I477
sg16
g5
sg17
I230
sg18
I2818454
sg19
g5
sg20
g5
sg21
I2070306
sg22
I8
sg23
I0
sg24
g5
sg25
I349487
sg26
I8407016
sg27
I2070306
ssS'BUY RICHARD B'
p410
(dp411
g3
I3523
sg4
I649584
sg6
g5
sg7
I00
sg8
I-694862
sg9
S'rick.buy@enron.com'
p412
sg11
I769862
sg12
F0.04960664335664336
sg13
g5
sg14
I5800172
sg15
I2333
sg16
g5
sg17
I1053
sg18
I400572
sg19
g5
sg20
I900000
sg21
I3444470
sg22
I156
sg23
I71
sg24
I901657
sg25
I330546
sg26
I2355702
sg27
I2542813
ssS'GRAMM WENDY L'
p413
(dp414
g3
g5
sg4
g5
sg6
g5
sg7
I00
sg8
g5
sg9
g5
sg11
g5
sg12
I0
sg13
g5
sg14
g36
sg15
g5
sg16
g5
sg17
g5
sg18
g5
sg19
I119292
sg20
g5
sg21
g5
sg22
g5
sg23
g5
sg24
g5
sg25
g5
sg26
I119292
sg27
g5
ssS'CAUSEY RICHARD A'
p415
(dp416
g3
I1892
sg4
g5
sg6
I30674
sg7
I01
sg8
I-235000
sg9
S'richard.causey@enron.com'
p417
sg11
I350000
sg12
F0.03606388459556929
sg13
g5
sg14
I4370821
sg15
I1585
sg16
g5
sg17
I49
sg18
I307895
sg19
g5
sg20
I1000000
sg21
I2502063
sg22
I58
sg23
I12
sg24
I2502063
sg25
I415189
sg26
I1868758
sg27
g5
ssS'TAYLOR MITCHELL S'
p418
(dp419
g3
I533
sg4
I227449
sg6
g5
sg7
I00
sg8
g5
sg9
S'mitchell.taylor@enron.com'
p420
sg11
g5
sg12
F0.0
sg13
g5
sg14
I4837711
sg15
I300
sg16
g5
sg17
I29
sg18
g5
sg19
g5
sg20
I600000
sg21
I3745048
sg22
I0
sg23
I0
sg24
I563798
sg25
I265214
sg26
I1092663
sg27
I3181250
ssS'DONAHUE JR JEFFREY M'
p421
(dp422
g3
I865
sg4
g5
sg6
I96268
sg7
I00
sg8
I-300000
sg9
S'jeff.donahue@enron.com'
p423
sg11
g5
sg12
F0.22435174746335965
sg13
g5
sg14
I1956748
sg15
I772
sg16
g5
sg17
I22
sg18
I891
sg19
g5
sg20
I800000
sg21
I1080988
sg22
I188
sg23
I11
sg24
I315068
sg25
I278601
sg26
I875760
sg27
I765920
ssS'GLISAN JR BEN F'
p424
(dp425
g3
I873
sg4
g5
sg6
I125978
sg7
I01
sg8
g5
sg9
S'ben.glisan@enron.com'
p426
sg11
I71023
sg12
F0.06524184476940383
sg13
g5
sg14
I2050830
sg15
I874
sg16
g5
sg17
I16
sg18
I200308
sg19
g5
sg20
I600000
sg21
I778546
sg22
I52
sg23
I6
sg24
I393818
sg25
I274975
sg26
I1272284
sg27
I384728
ss.